target datalayout = "e-m:e-p270:32:32-p271:32:32-p272:64:64-i64:64-i128:128-f80:128-n8:16:32:64-S128"
target triple = "x86_64-pc-linux-gnu"

%struct.H5VL_file_specific_args_t = type { i32, %union.anon.14 }
%union.anon.14 = type { %struct.anon.17 }
%struct.anon.17 = type { ptr, i64, ptr }
%struct.anon.15 = type { i32, i32 }

@H5_libterm_g = external global i8, align 1
@.str = private unnamed_addr constant [97 x i8] c"generated/home/dtcxzyw/WorkSpace/Projects/compilers/llvm-opt-benchmark/bench/hdf5/hdf5/src/H5F.c\00", align 1
@H5F_init_g = external global i8, align 1
@H5E_ARGS_g = external global i64, align 8
@H5E_BADTYPE_g = external global i64, align 8
@H5P_LST_DATASET_XFER_ID_g = external global i64, align 8
@H5E_FILE_g = external global i64, align 8
@.str.23 = private unnamed_addr constant [26 x i8] c"invalid object identifier\00", align 1
@H5E_CANTFLUSH_g = external global i64, align 8
@.str.92 = private unnamed_addr constant [26 x i8] c"not a file or file object\00", align 1
@__func__.H5F__flush_api_common = private unnamed_addr constant [22 x i8] c"H5F__flush_api_common\00", align 1
@.str.130 = private unnamed_addr constant [21 x i8] c"unable to flush file\00", align 1

; Function Attrs: nounwind uwtable
define internal i32 @H5F__flush_api_common(i64 noundef %0, i32 noundef %1, ptr noundef %2, ptr noundef %3) #0 {
  %5 = alloca i64, align 8
  %6 = alloca i32, align 4
  %7 = alloca ptr, align 8
  %8 = alloca ptr, align 8
  %9 = alloca ptr, align 8
  %10 = alloca ptr, align 8
  %11 = alloca i32, align 4
  %12 = alloca %struct.H5VL_file_specific_args_t, align 8
  %13 = alloca i32, align 4
  %14 = alloca i8, align 1
  store i64 %0, ptr %5, align 8, !tbaa !3
  store i32 %1, ptr %6, align 4, !tbaa !18
  store ptr %2, ptr %7, align 8, !tbaa !22
  store ptr %3, ptr %8, align 8, !tbaa !41
  call void @llvm.lifetime.start.p0(i64 8, ptr %9) #5
  store ptr null, ptr %9, align 8, !tbaa !11
  call void @llvm.lifetime.start.p0(i64 8, ptr %10) #5
  %15 = load ptr, ptr %8, align 8, !tbaa !41
  %16 = icmp ne ptr %15, null
  br i1 %16, label %17, label %19

17:                                               ; preds = %4
  %18 = load ptr, ptr %8, align 8, !tbaa !41
  br label %20

19:                                               ; preds = %4
  br label %20

20:                                               ; preds = %19, %17
  %21 = phi ptr [ %18, %17 ], [ %9, %19 ]
  store ptr %21, ptr %10, align 8, !tbaa !41
  call void @llvm.lifetime.start.p0(i64 4, ptr %11) #5
  call void @llvm.lifetime.start.p0(i64 32, ptr %12) #5
  call void @llvm.lifetime.start.p0(i64 4, ptr %13) #5
  store i32 0, ptr %13, align 4, !tbaa !18
  call void @llvm.lifetime.start.p0(i64 1, ptr %14) #5
  store i8 0, ptr %14, align 1, !tbaa !7
  %22 = load i8, ptr @H5F_init_g, align 1, !tbaa !7, !range !9, !noundef !10
  %23 = trunc i8 %22 to i1
  br i1 %23, label %28, label %24

24:                                               ; preds = %20
  %25 = load i8, ptr @H5_libterm_g, align 1, !tbaa !7, !range !9, !noundef !10
  %26 = trunc i8 %25 to i1
  %27 = xor i1 %26, true
  br label %28

28:                                               ; preds = %24, %20
  %29 = phi i1 [ true, %20 ], [ %27, %24 ]
  %30 = xor i1 %29, true
  %31 = xor i1 %30, true
  %32 = zext i1 %31 to i32
  %33 = sext i32 %32 to i64
  %34 = call i64 @llvm.expect.i64(i64 %33, i64 1)
  %35 = icmp ne i64 %34, 0
  br i1 %35, label %36, label %131

36:                                               ; preds = %28
  %37 = load i64, ptr %5, align 8, !tbaa !3
  %38 = call i32 @H5I_get_type(i64 noundef %37)
  store i32 %38, ptr %11, align 4, !tbaa !18
  %39 = load i32, ptr %11, align 4, !tbaa !18
  %40 = icmp ne i32 1, %39
  br i1 %40, label %41, label %72

41:                                               ; preds = %36
  %42 = load i32, ptr %11, align 4, !tbaa !18
  %43 = icmp ne i32 2, %42
  br i1 %43, label %44, label %72

44:                                               ; preds = %41
  %45 = load i32, ptr %11, align 4, !tbaa !18
  %46 = icmp ne i32 3, %45
  br i1 %46, label %47, label %72

47:                                               ; preds = %44
  %48 = load i32, ptr %11, align 4, !tbaa !18
  %49 = icmp ne i32 5, %48
  br i1 %49, label %50, label %72

50:                                               ; preds = %47
  %51 = load i32, ptr %11, align 4, !tbaa !18
  %52 = icmp ne i32 7, %51
  br i1 %52, label %53, label %72

53:                                               ; preds = %50
  br label %54

54:                                               ; preds = %53
  br label %55

55:                                               ; preds = %54
  br label %56

56:                                               ; preds = %55
  %57 = load i64, ptr @H5E_ARGS_g, align 8, !tbaa !3
  %58 = load i64, ptr @H5E_BADTYPE_g, align 8, !tbaa !3
  %59 = call i32 (ptr, ptr, i32, i64, i64, ptr, ...) @H5E_printf_stack(ptr noundef @.str, ptr noundef @__func__.H5F__flush_api_common, i32 noundef 926, i64 noundef %57, i64 noundef %58, ptr noundef @.str.92)
  br label %60

60:                                               ; preds = %56
  br label %61

61:                                               ; preds = %60
  store i8 1, ptr %14, align 1, !tbaa !7
  %62 = load i8, ptr %14, align 1, !tbaa !7, !range !9, !noundef !10
  %63 = trunc i8 %62 to i1
  %64 = zext i1 %63 to i8
  store i8 %64, ptr %14, align 1, !tbaa !7
  br label %65

65:                                               ; preds = %61
  br label %66

66:                                               ; preds = %65
  br label %67

67:                                               ; preds = %66
  store i32 -1, ptr %13, align 4, !tbaa !18
  br label %130

68:                                               ; No predecessors!
  br label %69

69:                                               ; preds = %68
  br label %70

70:                                               ; preds = %69
  br label %71

71:                                               ; preds = %70
  br label %72

72:                                               ; preds = %71, %50, %47, %44, %41, %36
  %73 = load i64, ptr %5, align 8, !tbaa !3
  %74 = call ptr @H5VL_vol_object(i64 noundef %73)
  %75 = load ptr, ptr %10, align 8, !tbaa !41
  store ptr %74, ptr %75, align 8, !tbaa !11
  %76 = icmp eq ptr null, %74
  br i1 %76, label %77, label %96

77:                                               ; preds = %72
  br label %78

78:                                               ; preds = %77
  br label %79

79:                                               ; preds = %78
  br label %80

80:                                               ; preds = %79
  %81 = load i64, ptr @H5E_ARGS_g, align 8, !tbaa !3
  %82 = load i64, ptr @H5E_BADTYPE_g, align 8, !tbaa !3
  %83 = call i32 (ptr, ptr, i32, i64, i64, ptr, ...) @H5E_printf_stack(ptr noundef @.str, ptr noundef @__func__.H5F__flush_api_common, i32 noundef 930, i64 noundef %81, i64 noundef %82, ptr noundef @.str.23)
  br label %84

84:                                               ; preds = %80
  br label %85

85:                                               ; preds = %84
  store i8 1, ptr %14, align 1, !tbaa !7
  %86 = load i8, ptr %14, align 1, !tbaa !7, !range !9, !noundef !10
  %87 = trunc i8 %86 to i1
  %88 = zext i1 %87 to i8
  store i8 %88, ptr %14, align 1, !tbaa !7
  br label %89

89:                                               ; preds = %85
  br label %90

90:                                               ; preds = %89
  br label %91

91:                                               ; preds = %90
  store i32 -1, ptr %13, align 4, !tbaa !18
  br label %130

92:                                               ; No predecessors!
  br label %93

93:                                               ; preds = %92
  br label %94

94:                                               ; preds = %93
  br label %95

95:                                               ; preds = %94
  br label %96

96:                                               ; preds = %95, %72
  %97 = getelementptr inbounds nuw %struct.H5VL_file_specific_args_t, ptr %12, i32 0, i32 0
  store i32 0, ptr %97, align 8, !tbaa !34
  %98 = load i32, ptr %11, align 4, !tbaa !18
  %99 = getelementptr inbounds nuw %struct.H5VL_file_specific_args_t, ptr %12, i32 0, i32 1
  %100 = getelementptr inbounds nuw %struct.anon.15, ptr %99, i32 0, i32 0
  store i32 %98, ptr %100, align 8, !tbaa !17
  %101 = load i32, ptr %6, align 4, !tbaa !18
  %102 = getelementptr inbounds nuw %struct.H5VL_file_specific_args_t, ptr %12, i32 0, i32 1
  %103 = getelementptr inbounds nuw %struct.anon.15, ptr %102, i32 0, i32 1
  store i32 %101, ptr %103, align 4, !tbaa !17
  %104 = load ptr, ptr %10, align 8, !tbaa !41
  %105 = load ptr, ptr %104, align 8, !tbaa !11
  %106 = load i64, ptr @H5P_LST_DATASET_XFER_ID_g, align 8, !tbaa !3
  %107 = load ptr, ptr %7, align 8, !tbaa !22
  %108 = call i32 @H5VL_file_specific(ptr noundef %105, ptr noundef %12, i64 noundef %106, ptr noundef %107)
  %109 = icmp slt i32 %108, 0
  br i1 %109, label %110, label %129

110:                                              ; preds = %96
  br label %111

111:                                              ; preds = %110
  br label %112

112:                                              ; preds = %111
  br label %113

113:                                              ; preds = %112
  %114 = load i64, ptr @H5E_FILE_g, align 8, !tbaa !3
  %115 = load i64, ptr @H5E_CANTFLUSH_g, align 8, !tbaa !3
  %116 = call i32 (ptr, ptr, i32, i64, i64, ptr, ...) @H5E_printf_stack(ptr noundef @.str, ptr noundef @__func__.H5F__flush_api_common, i32 noundef 939, i64 noundef %114, i64 noundef %115, ptr noundef @.str.130)
  br label %117

117:                                              ; preds = %113
  br label %118

118:                                              ; preds = %117
  store i8 1, ptr %14, align 1, !tbaa !7
  %119 = load i8, ptr %14, align 1, !tbaa !7, !range !9, !noundef !10
  %120 = trunc i8 %119 to i1
  %121 = zext i1 %120 to i8
  store i8 %121, ptr %14, align 1, !tbaa !7
  br label %122

122:                                              ; preds = %118
  br label %123

123:                                              ; preds = %122
  br label %124

124:                                              ; preds = %123
  store i32 -1, ptr %13, align 4, !tbaa !18
  br label %130

125:                                              ; No predecessors!
  br label %126

126:                                              ; preds = %125
  br label %127

127:                                              ; preds = %126
  br label %128

128:                                              ; preds = %127
  br label %129

129:                                              ; preds = %128, %96
  br label %130

130:                                              ; preds = %129, %124, %91, %67
  br label %131

131:                                              ; preds = %130, %28
  %132 = load i32, ptr %13, align 4, !tbaa !18
  call void @llvm.lifetime.end.p0(i64 1, ptr %14) #5
  call void @llvm.lifetime.end.p0(i64 4, ptr %13) #5
  call void @llvm.lifetime.end.p0(i64 32, ptr %12) #5
  call void @llvm.lifetime.end.p0(i64 4, ptr %11) #5
  call void @llvm.lifetime.end.p0(i64 8, ptr %10) #5
  call void @llvm.lifetime.end.p0(i64 8, ptr %9) #5
  ret i32 %132
}