; Function Attrs: nounwind uwtable
define internal fastcc range(i32 -1, 1) i32 @H5F__flush_api_common(i64 noundef %0, i32 noundef %1, ptr noundef %2, ptr noundef writeonly captures(address_is_null) %3) unnamed_addr #0 {
  %5 = alloca %struct.H5VL_file_specific_args_t, align 8
  %.not = icmp eq ptr %3, null
  call void @llvm.lifetime.start.p0(i64 32, ptr nonnull %5) #6
  %6 = load i8, ptr @H5F_init_g, align 1, !tbaa !3, !range !7, !noundef !8
  %7 = trunc nuw i8 %6 to i1
  %8 = load i8, ptr @H5_libterm_g, align 1, !range !7
  %9 = trunc nuw i8 %8 to i1
  %10 = xor i1 %9, true
  %11 = select i1 %7, i1 true, i1 %10
  br i1 %11, label %12, label %35, !prof !9

12:                                               ; preds = %4
  %13 = tail call i32 @H5I_get_type(i64 noundef %0) #6
  switch i32 %13, label %14 [
    i32 7, label %18
    i32 5, label %18
    i32 3, label %18
    i32 2, label %18
    i32 1, label %18
  ]

14:                                               ; preds = %12
  %15 = load i64, ptr @H5E_ARGS_g, align 8, !tbaa !11
  %16 = load i64, ptr @H5E_BADTYPE_g, align 8, !tbaa !11
  %17 = tail call i32 (ptr, ptr, i32, i64, i64, ptr, ...) @H5E_printf_stack(ptr noundef nonnull @.str, ptr noundef nonnull @__func__.H5F__flush_api_common, i32 noundef 926, i64 noundef %15, i64 noundef %16, ptr noundef nonnull @.str.92) #6
  br label %35

18:                                               ; preds = %12, %12, %12, %12, %12
  %19 = tail call ptr @H5VL_vol_object(i64 noundef %0) #6
  br i1 %.not, label %.cont, label %.cont.thread

.cont:                                            ; preds = %18
  %20 = icmp eq ptr %19, null
  br i1 %20, label %22, label %.cont24

.cont.thread:                                     ; preds = %18
  store ptr %19, ptr %3, align 8, !tbaa !37
  %21 = icmp eq ptr %19, null
  br i1 %21, label %22, label %.cont24

22:                                               ; preds = %.cont.thread, %.cont
  %23 = load i64, ptr @H5E_ARGS_g, align 8, !tbaa !11
  %24 = load i64, ptr @H5E_BADTYPE_g, align 8, !tbaa !11
  %25 = tail call i32 (ptr, ptr, i32, i64, i64, ptr, ...) @H5E_printf_stack(ptr noundef nonnull @.str, ptr noundef nonnull @__func__.H5F__flush_api_common, i32 noundef 930, i64 noundef %23, i64 noundef %24, ptr noundef nonnull @.str.23) #6
  br label %35

.cont24:                                          ; preds = %.cont.thread, %.cont
  store i32 0, ptr %5, align 8, !tbaa !31
  %26 = getelementptr inbounds nuw i8, ptr %5, i64 8
  store i32 %13, ptr %26, align 8, !tbaa !18
  %27 = getelementptr inbounds nuw i8, ptr %5, i64 12
  store i32 %1, ptr %27, align 4, !tbaa !18
  %28 = load i64, ptr @H5P_LST_DATASET_XFER_ID_g, align 8, !tbaa !11
  %29 = call i32 @H5VL_file_specific(ptr noundef nonnull %19, ptr noundef nonnull %5, i64 noundef %28, ptr noundef %2) #6
  %30 = icmp slt i32 %29, 0
  br i1 %30, label %31, label %35

31:                                               ; preds = %.cont24
  %32 = load i64, ptr @H5E_FILE_g, align 8, !tbaa !11
  %33 = load i64, ptr @H5E_CANTFLUSH_g, align 8, !tbaa !11
  %34 = call i32 (ptr, ptr, i32, i64, i64, ptr, ...) @H5E_printf_stack(ptr noundef nonnull @.str, ptr noundef nonnull @__func__.H5F__flush_api_common, i32 noundef 939, i64 noundef %32, i64 noundef %33, ptr noundef nonnull @.str.130) #6
  br label %35

35:                                               ; preds = %14, %22, %31, %.cont24, %4
  %.0 = phi i32 [ -1, %14 ], [ -1, %22 ], [ -1, %31 ], [ 0, %.cont24 ], [ 0, %4 ]
  call void @llvm.lifetime.end.p0(i64 32, ptr nonnull %5) #6
  ret i32 %.0
}